target datalayout = "e-m:e-p270:32:32-p271:32:32-p272:64:64-i64:64-i128:128-f80:128-n8:16:32:64-S128"
target triple = "x86_64-pc-linux-gnu"

%"class.icu_77::UnicodeSet" = type <{ %"class.icu_77::UnicodeFilter", ptr, i32, i32, i8, [7 x i8], ptr, ptr, i32, [4 x i8], ptr, i32, [4 x i8], ptr, ptr, [25 x i32], [4 x i8] }>
%"class.icu_77::UnicodeFilter" = type { %"class.icu_77::UnicodeFunctor", %"class.icu_77::UnicodeMatcher" }
%"class.icu_77::UnicodeFunctor" = type { %"class.icu_77::UObject" }
%"class.icu_77::UObject" = type { ptr }
%"class.icu_77::UnicodeMatcher" = type { ptr }
%"class.icu_77::UnicodeString" = type { %"class.icu_77::Replaceable", %"union.icu_77::UnicodeString::StackBufferOrFields" }
%"class.icu_77::Replaceable" = type { %"class.icu_77::UObject" }
%"union.icu_77::UnicodeString::StackBufferOrFields" = type { %struct.anon.0, [32 x i8] }
%struct.anon.0 = type { i16, i32, i32, ptr }
%"class.icu_77::RBBIRuleScanner" = type { ptr, ptr, i32, i32, i8, i32, i32, i32, %"struct.icu_77::RBBIRuleScanner::RBBIRuleChar", %"class.icu_77::UnicodeString", ptr, [100 x i16], i32, [100 x ptr], i32, i8, i8, i8, ptr, ptr, [10 x %"class.icu_77::UnicodeSet"], i32, i32, ptr, ptr, ptr, ptr }
%"struct.icu_77::RBBIRuleScanner::RBBIRuleChar" = type <{ i32, i8, [3 x i8] }>

@_ZTVN6icu_7715RBBIRuleScannerE = unnamed_addr constant { [4 x ptr] } { [4 x ptr] [ptr null, ptr @_ZTIN6icu_7715RBBIRuleScannerE, ptr @_ZN6icu_7715RBBIRuleScannerD1Ev, ptr @_ZN6icu_7715RBBIRuleScannerD0Ev] }, align 8

; Function Attrs: mustprogress nounwind uwtable
define void @_ZN6icu_7715RBBIRuleScannerD2Ev(ptr noundef nonnull align 8 dereferenceable(3192) %0) unnamed_addr #1 align 2 personality ptr @__gxx_personality_v0 {
  %2 = alloca ptr, align 8
  store ptr %0, ptr %2, align 8, !tbaa !3
  %3 = load ptr, ptr %2, align 8
  store ptr getelementptr inbounds inrange(-16, 16) ({ [4 x ptr] }, ptr @_ZTVN6icu_7715RBBIRuleScannerE, i32 0, i32 0, i32 2), ptr %3, align 8, !tbaa !10
  %4 = getelementptr inbounds nuw %"class.icu_77::RBBIRuleScanner", ptr %3, i32 0, i32 18
  %5 = load ptr, ptr %4, align 8, !tbaa !40
  %6 = icmp eq ptr %5, null
  br i1 %6, label %11, label %7

7:                                                ; preds = %1
  %8 = load ptr, ptr %5, align 8, !tbaa !10
  %9 = getelementptr inbounds ptr, ptr %8, i64 1
  %10 = load ptr, ptr %9, align 8
  call void %10(ptr noundef nonnull align 8 dereferenceable(108) %5) #12
  br label %11

11:                                               ; preds = %7, %1
  %12 = getelementptr inbounds nuw %"class.icu_77::RBBIRuleScanner", ptr %3, i32 0, i32 19
  %13 = load ptr, ptr %12, align 8, !tbaa !41
  %14 = icmp ne ptr %13, null
  br i1 %14, label %15, label %20

15:                                               ; preds = %11
  %16 = getelementptr inbounds nuw %"class.icu_77::RBBIRuleScanner", ptr %3, i32 0, i32 19
  %17 = load ptr, ptr %16, align 8, !tbaa !41
  invoke void @uhash_close_77(ptr noundef %17)
          to label %18 unwind label %48

18:                                               ; preds = %15
  %19 = getelementptr inbounds nuw %"class.icu_77::RBBIRuleScanner", ptr %3, i32 0, i32 19
  store ptr null, ptr %19, align 8, !tbaa !41
  br label %20

20:                                               ; preds = %18, %11
  br label %21

21:                                               ; preds = %34, %20
  %22 = getelementptr inbounds nuw %"class.icu_77::RBBIRuleScanner", ptr %3, i32 0, i32 14
  %23 = load i32, ptr %22, align 8, !tbaa !36
  %24 = icmp sgt i32 %23, 0
  br i1 %24, label %25, label %38

25:                                               ; preds = %21
  %26 = getelementptr inbounds nuw %"class.icu_77::RBBIRuleScanner", ptr %3, i32 0, i32 13
  %27 = getelementptr inbounds nuw %"class.icu_77::RBBIRuleScanner", ptr %3, i32 0, i32 14
  %28 = load i32, ptr %27, align 8, !tbaa !36
  %29 = sext i32 %28 to i64
  %30 = getelementptr inbounds [100 x ptr], ptr %26, i64 0, i64 %29
  %31 = load ptr, ptr %30, align 8, !tbaa !34
  %32 = icmp eq ptr %31, null
  br i1 %32, label %34, label %33

33:                                               ; preds = %25
  call void @_ZN6icu_778RBBINodeD1Ev(ptr noundef nonnull align 8 dereferenceable(160) %31) #12
  call void @_ZN6icu_777UMemorydlEPv(ptr noundef %31) #12
  br label %34

34:                                               ; preds = %33, %25
  %35 = getelementptr inbounds nuw %"class.icu_77::RBBIRuleScanner", ptr %3, i32 0, i32 14
  %36 = load i32, ptr %35, align 8, !tbaa !36
  %37 = add nsw i32 %36, -1
  store i32 %37, ptr %35, align 8, !tbaa !36
  br label %21, !llvm.loop !69

38:                                               ; preds = %21
  %39 = getelementptr inbounds nuw %"class.icu_77::RBBIRuleScanner", ptr %3, i32 0, i32 20
  %40 = getelementptr inbounds [10 x %"class.icu_77::UnicodeSet"], ptr %39, i32 0, i32 0
  %41 = getelementptr inbounds %"class.icu_77::UnicodeSet", ptr %40, i64 10
  br label %42

42:                                               ; preds = %42, %38
  %43 = phi ptr [ %41, %38 ], [ %44, %42 ]
  %44 = getelementptr inbounds %"class.icu_77::UnicodeSet", ptr %43, i64 -1
  call void @_ZN6icu_7710UnicodeSetD1Ev(ptr noundef nonnull align 8 dereferenceable(200) %44) #12
  %45 = icmp eq ptr %44, %40
  br i1 %45, label %46, label %42

46:                                               ; preds = %42
  %47 = getelementptr inbounds nuw %"class.icu_77::RBBIRuleScanner", ptr %3, i32 0, i32 9
  call void @_ZN6icu_7713UnicodeStringD1Ev(ptr noundef nonnull align 8 dereferenceable(64) %47) #12
  ret void

48:                                               ; preds = %15
  %49 = landingpad { ptr, i32 }
          catch ptr null
  %50 = extractvalue { ptr, i32 } %49, 0
  call void @__clang_call_terminate(ptr %50) #13
  unreachable
}