; Function Attrs: mustprogress nounwind uwtable
define void @_ZN6icu_7715RBBIRuleScannerD2Ev(ptr noundef nonnull align 8 dereferenceable(3192) initializes((0, 8)) %0) unnamed_addr #4 align 2 personality ptr @__gxx_personality_v0 {
  store ptr getelementptr inbounds nuw inrange(-16, 16) (i8, ptr @_ZTVN6icu_7715RBBIRuleScannerE, i64 16), ptr %0, align 8, !tbaa !3
  %2 = getelementptr inbounds nuw i8, ptr %0, i64 1136
  %3 = load ptr, ptr %2, align 8, !tbaa !48
  %4 = icmp eq ptr %3, null
  br i1 %4, label %9, label %5

5:                                                ; preds = %1
  %6 = load ptr, ptr %3, align 8, !tbaa !3
  %7 = getelementptr inbounds nuw i8, ptr %6, i64 8
  %8 = load ptr, ptr %7, align 8
  tail call void %8(ptr noundef nonnull align 8 dereferenceable(108) %3) #13
  br label %9

9:                                                ; preds = %5, %1
  %10 = getelementptr inbounds nuw i8, ptr %0, i64 1144
  %11 = load ptr, ptr %10, align 8, !tbaa !49
  %.not = icmp eq ptr %11, null
  br i1 %.not, label %14, label %12

12:                                               ; preds = %9
  invoke void @uhash_close_77(ptr noundef nonnull %11)
          to label %13 unwind label %33

13:                                               ; preds = %12
  store ptr null, ptr %10, align 8, !tbaa !49
  br label %14

14:                                               ; preds = %13, %9
  %15 = getelementptr inbounds nuw i8, ptr %0, i64 1128
  %16 = load i32, ptr %15, align 8, !tbaa !56
  %17 = icmp sgt i32 %16, 0
  br i1 %17, label %.lr.ph, label %.preheader.preheader

.lr.ph:                                           ; preds = %14
  %18 = getelementptr inbounds nuw i8, ptr %0, i64 328
  br label %19

19:                                               ; preds = %.lr.ph, %26
  %20 = phi i32 [ %16, %.lr.ph ], [ %28, %26 ]
  %21 = zext nneg i32 %20 to i64
  %22 = getelementptr inbounds nuw [100 x ptr], ptr %18, i64 0, i64 %21
  %23 = load ptr, ptr %22, align 8, !tbaa !31
  %24 = icmp eq ptr %23, null
  br i1 %24, label %26, label %25

25:                                               ; preds = %19
  tail call void @_ZN6icu_778RBBINodeD1Ev(ptr noundef nonnull align 8 dereferenceable(160) %23) #13
  tail call void @_ZN6icu_777UMemorydlEPv(ptr noundef nonnull %23) #13
  %.pre = load i32, ptr %15, align 8, !tbaa !56
  br label %26

26:                                               ; preds = %25, %19
  %27 = phi i32 [ %.pre, %25 ], [ %20, %19 ]
  %28 = add nsw i32 %27, -1
  store i32 %28, ptr %15, align 8, !tbaa !56
  %29 = icmp sgt i32 %27, 1
  br i1 %29, label %19, label %.preheader.preheader, !llvm.loop !57

.preheader.preheader:                             ; preds = %26, %14
  br label %.preheader

.preheader:                                       ; preds = %.preheader.preheader, %.preheader
  %.idx = phi i64 [ %.add, %.preheader ], [ 3152, %.preheader.preheader ]
  %.add = add nsw i64 %.idx, -200
  %.ptr4 = getelementptr inbounds i8, ptr %0, i64 %.add
  tail call void @_ZN6icu_7710UnicodeSetD1Ev(ptr noundef nonnull align 8 dereferenceable(200) %.ptr4) #13
  %30 = icmp eq i64 %.add, 1152
  br i1 %30, label %31, label %.preheader

31:                                               ; preds = %.preheader
  %32 = getelementptr inbounds nuw i8, ptr %0, i64 48
  tail call void @_ZN6icu_7713UnicodeStringD1Ev(ptr noundef nonnull align 8 dereferenceable(64) %32) #13
  ret void

33:                                               ; preds = %12
  %34 = landingpad { ptr, i32 }
          catch ptr null
  %35 = extractvalue { ptr, i32 } %34, 0
  tail call void @__clang_call_terminate(ptr %35) #14
  unreachable
}